; Function Attrs: null_pointer_is_valid sspstrong uwtable
define internal noundef i32 @dccpip_endpoint_packet(ptr noundef initializes((24, 28)) %0, ptr noundef readonly captures(none) %1, ptr readnone captures(none) %2, ptr noundef %3, i32 noundef %4) #1 {
  %6 = getelementptr inbounds nuw i8, ptr %0, i64 24
  store i32 %4, ptr %6, align 8
  %7 = getelementptr inbounds nuw i8, ptr %3, i64 56
  %8 = load i16, ptr %3, align 8
  %9 = zext i16 %8 to i32
  %10 = getelementptr inbounds nuw i8, ptr %1, i64 80
  %11 = load ptr, ptr %10, align 8
  %12 = getelementptr inbounds nuw i8, ptr %11, i64 8
  %13 = load i32, ptr %12, align 8
  tail call void @add_endpoint_table_data(ptr noundef %0, ptr noundef nonnull %7, i32 noundef %9, i1 noundef zeroext true, i32 noundef 1, i32 noundef %13, ptr noundef nonnull @dccp_endpoint_dissector_info, i32 noundef 4)
  %14 = getelementptr inbounds nuw i8, ptr %3, i64 80
  %15 = getelementptr inbounds nuw i8, ptr %3, i64 2
  %16 = load i16, ptr %15, align 2
  %17 = zext i16 %16 to i32
  %18 = load ptr, ptr %10, align 8
  %19 = getelementptr inbounds nuw i8, ptr %18, i64 8
  %20 = load i32, ptr %19, align 8
  tail call void @add_endpoint_table_data(ptr noundef %0, ptr noundef nonnull %14, i32 noundef %17, i1 noundef zeroext false, i32 noundef 1, i32 noundef %20, ptr noundef nonnull @dccp_endpoint_dissector_info, i32 noundef 4)
  ret i32 1
}